#include <math.h>
#include <stdio.h>
#include <stdlib.h>
#include <string.h>


int main() {
  char s[15], t[15];
  int i, k;
  while (scanf("%s%s", s, t) != EOF) {
    k = 0;
    for (i = 1; s[i]; ++i)
      if (s[k] < s[i]) k = i;
    for (i = 0; i <= k; ++i)
      putchar(s[i]);
    printf("%s", t);
    for (i = k + 1; s[i]; ++i)
      putchar(s[i]);
    putchar('\n');
  }
  return 0;
}
